target datalayout = "e-m:e-p270:32:32-p271:32:32-p272:64:64-i64:64-i128:128-f80:128-n8:16:32:64-S128"
target triple = "x86_64-pc-linux-gnu"

%"struct.Atomic::StoreImpl.73" = type { i8 }
%"struct.Atomic::PlatformStore.74" = type { i8 }

@CheckJNICalls = external global i8, align 1

; Function Attrs: mustprogress nounwind uwtable
define linkonce_odr hidden void @_ZNK6Atomic13PlatformStoreILm8EEclIlEEvPVT_S3_(ptr noundef nonnull align 1 dereferenceable(1) %0, ptr noundef %1, i64 noundef %2) #1 comdat align 2 {
  %4 = alloca ptr, align 8
  %5 = alloca ptr, align 8
  %6 = alloca i64, align 8
  store ptr %0, ptr %4, align 8
  store ptr %1, ptr %5, align 8
  store i64 %2, ptr %6, align 8
  %7 = load i64, ptr %6, align 8
  %8 = load ptr, ptr %5, align 8
  store volatile i64 %7, ptr %8, align 8
  ret void
}

; Function Attrs: mustprogress nounwind uwtable
define linkonce_odr hidden void @_ZNK6Atomic9StoreImplIllNS_13PlatformStoreILm8EEEvEclEPVll(ptr noundef nonnull align 1 dereferenceable(1) %0, ptr noundef %1, i64 noundef %2) #1 comdat align 2 {
  %4 = alloca ptr, align 8
  %5 = alloca ptr, align 8
  %6 = alloca i64, align 8
  %7 = alloca %"struct.Atomic::PlatformStore.74", align 1
  store ptr %0, ptr %4, align 8
  store ptr %1, ptr %5, align 8
  store i64 %2, ptr %6, align 8
  %8 = load ptr, ptr %5, align 8
  %9 = load i64, ptr %6, align 8
  call void @_ZNK6Atomic13PlatformStoreILm8EEclIlEEvPVT_S3_(ptr noundef nonnull align 1 dereferenceable(1) %7, ptr noundef %8, i64 noundef %9)
  ret void
}

; Function Attrs: mustprogress nounwind uwtable
define linkonce_odr hidden void @_ZN6Atomic5storeIllEEvPVT_T0_(ptr noundef %0, i64 noundef %1) #1 comdat align 2 {
  %3 = alloca ptr, align 8
  %4 = alloca i64, align 8
  %5 = alloca %"struct.Atomic::StoreImpl.73", align 1
  store ptr %0, ptr %3, align 8
  store i64 %1, ptr %4, align 8
  %6 = load ptr, ptr %3, align 8
  %7 = load i64, ptr %4, align 8
  call void @_ZNK6Atomic9StoreImplIllNS_13PlatformStoreILm8EEEvEclEPVll(ptr noundef nonnull align 1 dereferenceable(1) %5, ptr noundef %6, i64 noundef %7)
  ret void
}

; Function Attrs: mustprogress nounwind uwtable
define hidden noundef ptr @_Z13jni_functionsv() #1 {
  %1 = alloca ptr, align 8
  %2 = load i8, ptr @CheckJNICalls, align 1
  %3 = trunc i8 %2 to i1
  br i1 %3, label %4, label %6

4:                                                ; preds = %0
  %5 = call noundef ptr @_Z19jni_functions_checkv()
  store ptr %5, ptr %1, align 8
  br label %7

6:                                                ; preds = %0
  store ptr @jni_NativeInterface, ptr %1, align 8
  br label %7

7:                                                ; preds = %6, %4
  %8 = load ptr, ptr %1, align 8
  ret ptr %8
}

; Function Attrs: mustprogress nounwind uwtable
define hidden void @_Z23copy_jni_function_tablePK19JNINativeInterface_(ptr noundef %0) #1 {
  %2 = alloca ptr, align 8
  %3 = alloca ptr, align 8
  %4 = alloca ptr, align 8
  %5 = alloca i32, align 4
  store ptr %0, ptr %2, align 8
  %6 = call noundef ptr @_Z13jni_functionsv()
  store ptr %6, ptr %3, align 8
  %7 = load ptr, ptr %2, align 8
  store ptr %7, ptr %4, align 8
  store i32 0, ptr %5, align 4
  br label %8

8:                                                ; preds = %18, %1
  %9 = load i32, ptr %5, align 4
  %10 = zext i32 %9 to i64
  %11 = icmp ult i64 %10, 235
  br i1 %11, label %12, label %21

12:                                               ; preds = %8
  %13 = load ptr, ptr %3, align 8
  %14 = getelementptr inbounds i64, ptr %13, i32 1
  store ptr %14, ptr %3, align 8
  %15 = load ptr, ptr %4, align 8
  %16 = getelementptr inbounds i64, ptr %15, i32 1
  store ptr %16, ptr %4, align 8
  %17 = load i64, ptr %15, align 8
  call void @_ZN6Atomic5storeIllEEvPVT_T0_(ptr noundef %13, i64 noundef %17)
  br label %18

18:                                               ; preds = %12
  %19 = load i32, ptr %5, align 4
  %20 = add i32 %19, 1
  store i32 %20, ptr %5, align 4
  br label %8, !llvm.loop !937

21:                                               ; preds = %8
  ret void
}