; Function Attrs: mustprogress nounwind uwtable
define hidden void @_Z23copy_jni_function_tablePK19JNINativeInterface_(ptr nocapture noundef readonly %0) local_unnamed_addr #0 {
  %2 = load i8, ptr @CheckJNICalls, align 1
  %3 = trunc i8 %2 to i1
  br i1 %3, label %4, label %_Z13jni_functionsv.exit.preheader

4:                                                ; preds = %1
  %5 = tail call noundef ptr @_Z19jni_functions_checkv() #14
  br label %_Z13jni_functionsv.exit.preheader

_Z13jni_functionsv.exit.preheader:                ; preds = %1, %4
  %.056.ph = phi ptr [ %5, %4 ], [ @jni_NativeInterface, %1 ]
  br label %_Z13jni_functionsv.exit

_Z13jni_functionsv.exit:                          ; preds = %_Z13jni_functionsv.exit.preheader, %_Z13jni_functionsv.exit
  %.08 = phi i32 [ %9, %_Z13jni_functionsv.exit ], [ 0, %_Z13jni_functionsv.exit.preheader ]
  %.047 = phi ptr [ %7, %_Z13jni_functionsv.exit ], [ %0, %_Z13jni_functionsv.exit.preheader ]
  %.056 = phi ptr [ %6, %_Z13jni_functionsv.exit ], [ %.056.ph, %_Z13jni_functionsv.exit.preheader ]
  %6 = getelementptr inbounds i8, ptr %.056, i64 8
  %7 = getelementptr inbounds i8, ptr %.047, i64 8
  %8 = load i64, ptr %.047, align 8
  store volatile i64 %8, ptr %.056, align 8
  %9 = add nuw nsw i32 %.08, 1
  %exitcond.not = icmp eq i32 %9, 235
  br i1 %exitcond.not, label %10, label %_Z13jni_functionsv.exit, !llvm.loop !941

10:                                               ; preds = %_Z13jni_functionsv.exit
  ret void
}